target datalayout = "e-m:e-p270:32:32-p271:32:32-p272:64:64-i64:64-i128:128-f80:128-n8:16:32:64-S128"
target triple = "x86_64-pc-linux-gnu"

%struct.If_Obj_t_ = type { i32, i32, i32, i32, i32, i32, ptr, ptr, ptr, float, float, float, %union.anon, ptr, %struct.If_Cut_t_ }
%union.anon = type { ptr }
%struct.If_Cut_t_ = type <{ float, float, float, float, i32, i32, i32, i64, [0 x i32] }>
%struct.Vec_Ptr_t_ = type { i32, i32, ptr }

; Function Attrs: inlinehint nounwind uwtable
define internal void @Vec_PtrGrow(ptr noundef %0, i32 noundef %1) #3 {
  %3 = alloca ptr, align 8
  %4 = alloca i32, align 4
  store ptr %0, ptr %3, align 8, !tbaa !151
  store i32 %1, ptr %4, align 4, !tbaa !42
  %5 = load ptr, ptr %3, align 8, !tbaa !151
  %6 = getelementptr inbounds nuw %struct.Vec_Ptr_t_, ptr %5, i32 0, i32 0
  %7 = load i32, ptr %6, align 8, !tbaa !209
  %8 = load i32, ptr %4, align 4, !tbaa !42
  %9 = icmp sge i32 %7, %8
  br i1 %9, label %10, label %11

10:                                               ; preds = %2
  br label %36

11:                                               ; preds = %2
  %12 = load ptr, ptr %3, align 8, !tbaa !151
  %13 = getelementptr inbounds nuw %struct.Vec_Ptr_t_, ptr %12, i32 0, i32 2
  %14 = load ptr, ptr %13, align 8, !tbaa !154
  %15 = icmp ne ptr %14, null
  br i1 %15, label %16, label %24

16:                                               ; preds = %11
  %17 = load ptr, ptr %3, align 8, !tbaa !151
  %18 = getelementptr inbounds nuw %struct.Vec_Ptr_t_, ptr %17, i32 0, i32 2
  %19 = load ptr, ptr %18, align 8, !tbaa !154
  %20 = load i32, ptr %4, align 4, !tbaa !42
  %21 = sext i32 %20 to i64
  %22 = mul i64 8, %21
  %23 = call ptr @realloc(ptr noundef %19, i64 noundef %22) #18
  br label %29

24:                                               ; preds = %11
  %25 = load i32, ptr %4, align 4, !tbaa !42
  %26 = sext i32 %25 to i64
  %27 = mul i64 8, %26
  %28 = call noalias ptr @malloc(i64 noundef %27) #16
  br label %29

29:                                               ; preds = %24, %16
  %30 = phi ptr [ %23, %16 ], [ %28, %24 ]
  %31 = load ptr, ptr %3, align 8, !tbaa !151
  %32 = getelementptr inbounds nuw %struct.Vec_Ptr_t_, ptr %31, i32 0, i32 2
  store ptr %30, ptr %32, align 8, !tbaa !154
  %33 = load i32, ptr %4, align 4, !tbaa !42
  %34 = load ptr, ptr %3, align 8, !tbaa !151
  %35 = getelementptr inbounds nuw %struct.Vec_Ptr_t_, ptr %34, i32 0, i32 0
  store i32 %33, ptr %35, align 8, !tbaa !209
  br label %36

36:                                               ; preds = %29, %10
  ret void
}

; Function Attrs: inlinehint nounwind uwtable
define internal i32 @Abc_LitNot(i32 noundef %0) #3 {
  %2 = alloca i32, align 4
  store i32 %0, ptr %2, align 4, !tbaa !42
  %3 = load i32, ptr %2, align 4, !tbaa !42
  %4 = xor i32 %3, 1
  ret i32 %4
}

; Function Attrs: inlinehint nounwind uwtable
define internal i32 @Abc_LitNotCond(i32 noundef %0, i32 noundef %1) #3 {
  %3 = alloca i32, align 4
  %4 = alloca i32, align 4
  store i32 %0, ptr %3, align 4, !tbaa !42
  store i32 %1, ptr %4, align 4, !tbaa !42
  %5 = load i32, ptr %3, align 4, !tbaa !42
  %6 = load i32, ptr %4, align 4, !tbaa !42
  %7 = icmp sgt i32 %6, 0
  %8 = zext i1 %7 to i32
  %9 = xor i32 %5, %8
  ret i32 %9
}

; Function Attrs: inlinehint nounwind uwtable
define internal i32 @If_ObjIsCi(ptr noundef %0) #3 {
  %2 = alloca ptr, align 8
  store ptr %0, ptr %2, align 8, !tbaa !131
  %3 = load ptr, ptr %2, align 8, !tbaa !131
  %4 = load i32, ptr %3, align 8
  %5 = and i32 %4, 15
  %6 = icmp eq i32 %5, 2
  %7 = zext i1 %6 to i32
  ret i32 %7
}

; Function Attrs: inlinehint nounwind uwtable
define internal void @If_CutSetDataInt(ptr noundef %0, i32 noundef %1) #3 {
  %3 = alloca ptr, align 8
  %4 = alloca i32, align 4
  store ptr %0, ptr %3, align 8, !tbaa !169
  store i32 %1, ptr %4, align 4, !tbaa !42
  %5 = load i32, ptr %4, align 4, !tbaa !42
  %6 = load ptr, ptr %3, align 8, !tbaa !169
  store i32 %5, ptr %6, align 4, !tbaa !42
  ret void
}

; Function Attrs: inlinehint nounwind uwtable
define internal void @Vec_PtrPush(ptr noundef %0, ptr noundef %1) #3 {
  %3 = alloca ptr, align 8
  %4 = alloca ptr, align 8
  store ptr %0, ptr %3, align 8, !tbaa !151
  store ptr %1, ptr %4, align 8, !tbaa !3
  %5 = load ptr, ptr %3, align 8, !tbaa !151
  %6 = getelementptr inbounds nuw %struct.Vec_Ptr_t_, ptr %5, i32 0, i32 1
  %7 = load i32, ptr %6, align 4, !tbaa !152
  %8 = load ptr, ptr %3, align 8, !tbaa !151
  %9 = getelementptr inbounds nuw %struct.Vec_Ptr_t_, ptr %8, i32 0, i32 0
  %10 = load i32, ptr %9, align 8, !tbaa !209
  %11 = icmp eq i32 %7, %10
  br i1 %11, label %12, label %26

12:                                               ; preds = %2
  %13 = load ptr, ptr %3, align 8, !tbaa !151
  %14 = getelementptr inbounds nuw %struct.Vec_Ptr_t_, ptr %13, i32 0, i32 0
  %15 = load i32, ptr %14, align 8, !tbaa !209
  %16 = icmp slt i32 %15, 16
  br i1 %16, label %17, label %19

17:                                               ; preds = %12
  %18 = load ptr, ptr %3, align 8, !tbaa !151
  call void @Vec_PtrGrow(ptr noundef %18, i32 noundef 16)
  br label %25

19:                                               ; preds = %12
  %20 = load ptr, ptr %3, align 8, !tbaa !151
  %21 = load ptr, ptr %3, align 8, !tbaa !151
  %22 = getelementptr inbounds nuw %struct.Vec_Ptr_t_, ptr %21, i32 0, i32 0
  %23 = load i32, ptr %22, align 8, !tbaa !209
  %24 = mul nsw i32 2, %23
  call void @Vec_PtrGrow(ptr noundef %20, i32 noundef %24)
  br label %25

25:                                               ; preds = %19, %17
  br label %26

26:                                               ; preds = %25, %2
  %27 = load ptr, ptr %4, align 8, !tbaa !3
  %28 = load ptr, ptr %3, align 8, !tbaa !151
  %29 = getelementptr inbounds nuw %struct.Vec_Ptr_t_, ptr %28, i32 0, i32 2
  %30 = load ptr, ptr %29, align 8, !tbaa !154
  %31 = load ptr, ptr %3, align 8, !tbaa !151
  %32 = getelementptr inbounds nuw %struct.Vec_Ptr_t_, ptr %31, i32 0, i32 1
  %33 = load i32, ptr %32, align 4, !tbaa !152
  %34 = add nsw i32 %33, 1
  store i32 %34, ptr %32, align 4, !tbaa !152
  %35 = sext i32 %33 to i64
  %36 = getelementptr inbounds ptr, ptr %30, i64 %35
  store ptr %27, ptr %36, align 8, !tbaa !3
  ret void
}

; Function Attrs: inlinehint nounwind uwtable
define internal i32 @If_CutDataInt(ptr noundef %0) #3 {
  %2 = alloca ptr, align 8
  store ptr %0, ptr %2, align 8, !tbaa !169
  %3 = load ptr, ptr %2, align 8, !tbaa !169
  %4 = load i32, ptr %3, align 4, !tbaa !42
  ret i32 %4
}

; Function Attrs: inlinehint nounwind uwtable
define internal ptr @If_ObjCutBest(ptr noundef %0) #3 {
  %2 = alloca ptr, align 8
  store ptr %0, ptr %2, align 8, !tbaa !131
  %3 = load ptr, ptr %2, align 8, !tbaa !131
  %4 = getelementptr inbounds nuw %struct.If_Obj_t_, ptr %3, i32 0, i32 14
  ret ptr %4
}

; Function Attrs: nounwind uwtable
define i32 @Gia_ManNodeIfToGia_rec(ptr noundef %0, ptr noundef %1, ptr noundef %2, ptr noundef %3, i32 noundef %4) #0 {
  %6 = alloca i32, align 4
  %7 = alloca ptr, align 8
  %8 = alloca ptr, align 8
  %9 = alloca ptr, align 8
  %10 = alloca ptr, align 8
  %11 = alloca i32, align 4
  %12 = alloca ptr, align 8
  %13 = alloca ptr, align 8
  %14 = alloca i32, align 4
  %15 = alloca i32, align 4
  %16 = alloca i32, align 4
  %17 = alloca i32, align 4
  store ptr %0, ptr %7, align 8, !tbaa !40
  store ptr %1, ptr %8, align 8, !tbaa !129
  store ptr %2, ptr %9, align 8, !tbaa !131
  store ptr %3, ptr %10, align 8, !tbaa !151
  store i32 %4, ptr %11, align 4, !tbaa !42
  call void @llvm.lifetime.start.p0(i64 8, ptr %12) #14
  call void @llvm.lifetime.start.p0(i64 8, ptr %13) #14
  call void @llvm.lifetime.start.p0(i64 4, ptr %14) #14
  call void @llvm.lifetime.start.p0(i64 4, ptr %15) #14
  call void @llvm.lifetime.start.p0(i64 4, ptr %16) #14
  %18 = load ptr, ptr %9, align 8, !tbaa !131
  %19 = call ptr @If_ObjCutBest(ptr noundef %18)
  store ptr %19, ptr %12, align 8, !tbaa !169
  %20 = load ptr, ptr %12, align 8, !tbaa !169
  %21 = call i32 @If_CutDataInt(ptr noundef %20)
  %22 = icmp ne i32 %21, 0
  br i1 %22, label %23, label %26

23:                                               ; preds = %5
  %24 = load ptr, ptr %12, align 8, !tbaa !169
  %25 = call i32 @If_CutDataInt(ptr noundef %24)
  store i32 %25, ptr %6, align 4
  store i32 1, ptr %17, align 4
  br label %121

26:                                               ; preds = %5
  %27 = load ptr, ptr %10, align 8, !tbaa !151
  %28 = load ptr, ptr %12, align 8, !tbaa !169
  call void @Vec_PtrPush(ptr noundef %27, ptr noundef %28)
  %29 = load ptr, ptr %12, align 8, !tbaa !169
  call void @If_CutSetDataInt(ptr noundef %29, i32 noundef -1)
  %30 = load ptr, ptr %9, align 8, !tbaa !131
  %31 = call i32 @If_ObjIsCi(ptr noundef %30)
  %32 = icmp ne i32 %31, 0
  br i1 %32, label %33, label %36

33:                                               ; preds = %26
  %34 = load ptr, ptr %12, align 8, !tbaa !169
  %35 = call i32 @If_CutDataInt(ptr noundef %34)
  store i32 %35, ptr %6, align 4
  store i32 1, ptr %17, align 4
  br label %121

36:                                               ; preds = %26
  %37 = load ptr, ptr %9, align 8, !tbaa !131
  store ptr %37, ptr %13, align 8, !tbaa !131
  br label %38

38:                                               ; preds = %114, %36
  %39 = load ptr, ptr %13, align 8, !tbaa !131
  %40 = icmp ne ptr %39, null
  br i1 %40, label %41, label %118

41:                                               ; preds = %38
  %42 = load ptr, ptr %7, align 8, !tbaa !40
  %43 = load ptr, ptr %8, align 8, !tbaa !129
  %44 = load ptr, ptr %13, align 8, !tbaa !131
  %45 = getelementptr inbounds nuw %struct.If_Obj_t_, ptr %44, i32 0, i32 6
  %46 = load ptr, ptr %45, align 8, !tbaa !137
  %47 = load ptr, ptr %10, align 8, !tbaa !151
  %48 = load i32, ptr %11, align 4, !tbaa !42
  %49 = call i32 @Gia_ManNodeIfToGia_rec(ptr noundef %42, ptr noundef %43, ptr noundef %46, ptr noundef %47, i32 noundef %48)
  store i32 %49, ptr %15, align 4, !tbaa !42
  %50 = load i32, ptr %15, align 4, !tbaa !42
  %51 = icmp eq i32 %50, -1
  br i1 %51, label %52, label %53

52:                                               ; preds = %41
  br label %114

53:                                               ; preds = %41
  %54 = load ptr, ptr %7, align 8, !tbaa !40
  %55 = load ptr, ptr %8, align 8, !tbaa !129
  %56 = load ptr, ptr %13, align 8, !tbaa !131
  %57 = getelementptr inbounds nuw %struct.If_Obj_t_, ptr %56, i32 0, i32 7
  %58 = load ptr, ptr %57, align 8, !tbaa !138
  %59 = load ptr, ptr %10, align 8, !tbaa !151
  %60 = load i32, ptr %11, align 4, !tbaa !42
  %61 = call i32 @Gia_ManNodeIfToGia_rec(ptr noundef %54, ptr noundef %55, ptr noundef %58, ptr noundef %59, i32 noundef %60)
  store i32 %61, ptr %16, align 4, !tbaa !42
  %62 = load i32, ptr %16, align 4, !tbaa !42
  %63 = icmp eq i32 %62, -1
  br i1 %63, label %64, label %65

64:                                               ; preds = %53
  br label %114

65:                                               ; preds = %53
  %66 = load i32, ptr %11, align 4, !tbaa !42
  %67 = icmp ne i32 %66, 0
  br i1 %67, label %68, label %83

68:                                               ; preds = %65
  %69 = load ptr, ptr %7, align 8, !tbaa !40
  %70 = load i32, ptr %15, align 4, !tbaa !42
  %71 = load ptr, ptr %13, align 8, !tbaa !131
  %72 = load i32, ptr %71, align 8
  %73 = lshr i32 %72, 4
  %74 = and i32 %73, 1
  %75 = call i32 @Abc_LitNotCond(i32 noundef %70, i32 noundef %74)
  %76 = load i32, ptr %16, align 4, !tbaa !42
  %77 = load ptr, ptr %13, align 8, !tbaa !131
  %78 = load i32, ptr %77, align 8
  %79 = lshr i32 %78, 5
  %80 = and i32 %79, 1
  %81 = call i32 @Abc_LitNotCond(i32 noundef %76, i32 noundef %80)
  %82 = call i32 @Gia_ManHashAnd(ptr noundef %69, i32 noundef %75, i32 noundef %81)
  store i32 %82, ptr %14, align 4, !tbaa !42
  br label %98

83:                                               ; preds = %65
  %84 = load ptr, ptr %7, align 8, !tbaa !40
  %85 = load i32, ptr %15, align 4, !tbaa !42
  %86 = load ptr, ptr %13, align 8, !tbaa !131
  %87 = load i32, ptr %86, align 8
  %88 = lshr i32 %87, 4
  %89 = and i32 %88, 1
  %90 = call i32 @Abc_LitNotCond(i32 noundef %85, i32 noundef %89)
  %91 = load i32, ptr %16, align 4, !tbaa !42
  %92 = load ptr, ptr %13, align 8, !tbaa !131
  %93 = load i32, ptr %92, align 8
  %94 = lshr i32 %93, 5
  %95 = and i32 %94, 1
  %96 = call i32 @Abc_LitNotCond(i32 noundef %91, i32 noundef %95)
  %97 = call i32 @Gia_ManAppendAnd(ptr noundef %84, i32 noundef %90, i32 noundef %96)
  store i32 %97, ptr %14, align 4, !tbaa !42
  br label %98

98:                                               ; preds = %83, %68
  %99 = load ptr, ptr %13, align 8, !tbaa !131
  %100 = load i32, ptr %99, align 8
  %101 = lshr i32 %100, 6
  %102 = and i32 %101, 1
  %103 = load ptr, ptr %9, align 8, !tbaa !131
  %104 = load i32, ptr %103, align 8
  %105 = lshr i32 %104, 6
  %106 = and i32 %105, 1
  %107 = icmp ne i32 %102, %106
  br i1 %107, label %108, label %111

108:                                              ; preds = %98
  %109 = load i32, ptr %14, align 4, !tbaa !42
  %110 = call i32 @Abc_LitNot(i32 noundef %109)
  store i32 %110, ptr %14, align 4, !tbaa !42
  br label %111

111:                                              ; preds = %108, %98
  %112 = load ptr, ptr %12, align 8, !tbaa !169
  %113 = load i32, ptr %14, align 4, !tbaa !42
  call void @If_CutSetDataInt(ptr noundef %112, i32 noundef %113)
  br label %118

114:                                              ; preds = %64, %52
  %115 = load ptr, ptr %13, align 8, !tbaa !131
  %116 = getelementptr inbounds nuw %struct.If_Obj_t_, ptr %115, i32 0, i32 8
  %117 = load ptr, ptr %116, align 8, !tbaa !133
  store ptr %117, ptr %13, align 8, !tbaa !131
  br label %38, !llvm.loop !208

118:                                              ; preds = %111, %38
  %119 = load ptr, ptr %12, align 8, !tbaa !169
  %120 = call i32 @If_CutDataInt(ptr noundef %119)
  store i32 %120, ptr %6, align 4
  store i32 1, ptr %17, align 4
  br label %121

121:                                              ; preds = %118, %33, %23
  call void @llvm.lifetime.end.p0(i64 4, ptr %16) #14
  call void @llvm.lifetime.end.p0(i64 4, ptr %15) #14
  call void @llvm.lifetime.end.p0(i64 4, ptr %14) #14
  call void @llvm.lifetime.end.p0(i64 8, ptr %13) #14
  call void @llvm.lifetime.end.p0(i64 8, ptr %12) #14
  %122 = load i32, ptr %6, align 4
  ret i32 %122
}