; Function Attrs: nounwind uwtable
define i32 @Gia_ManNodeIfToGia_rec(ptr noundef %0, ptr noundef %1, ptr noundef %2, ptr noundef %3, i32 noundef %4) local_unnamed_addr #4 {
  %6 = getelementptr inbounds nuw i8, ptr %2, i64 80
  %.val48 = load i32, ptr %6, align 4, !tbaa !48
  %.not = icmp eq i32 %.val48, 0
  br i1 %.not, label %7, label %.loopexit

7:                                                ; preds = %5
  %8 = getelementptr inbounds nuw i8, ptr %3, i64 4
  %9 = load i32, ptr %8, align 4, !tbaa !126
  %10 = load i32, ptr %3, align 8, !tbaa !197
  %11 = icmp eq i32 %9, %10
  br i1 %11, label %12, label %.Vec_PtrGrow.exit11_crit_edge.i

.Vec_PtrGrow.exit11_crit_edge.i:                  ; preds = %7
  %.phi.trans.insert.i = getelementptr inbounds nuw i8, ptr %3, i64 8
  %.pre.i = load ptr, ptr %.phi.trans.insert.i, align 8, !tbaa !129
  br label %Vec_PtrPush.exit

12:                                               ; preds = %7
  %13 = icmp slt i32 %9, 16
  br i1 %13, label %14, label %22

14:                                               ; preds = %12
  %15 = getelementptr inbounds nuw i8, ptr %3, i64 8
  %16 = load ptr, ptr %15, align 8, !tbaa !129
  %.not9.i.i = icmp eq ptr %16, null
  br i1 %.not9.i.i, label %19, label %17

17:                                               ; preds = %14
  %18 = tail call dereferenceable_or_null(128) ptr @realloc(ptr noundef nonnull %16, i64 noundef 128) #28
  br label %Vec_PtrGrow.exit.i

19:                                               ; preds = %14
  %20 = tail call noalias dereferenceable_or_null(128) ptr @malloc(i64 noundef 128) #29
  br label %Vec_PtrGrow.exit.i

Vec_PtrGrow.exit.i:                               ; preds = %19, %17
  %21 = phi ptr [ %18, %17 ], [ %20, %19 ]
  store ptr %21, ptr %15, align 8, !tbaa !129
  store i32 16, ptr %3, align 8, !tbaa !197
  br label %Vec_PtrPush.exit

22:                                               ; preds = %12
  %23 = shl nuw nsw i32 %9, 1
  %24 = getelementptr inbounds nuw i8, ptr %3, i64 8
  %25 = load ptr, ptr %24, align 8, !tbaa !129
  %.not9.i10.i = icmp eq ptr %25, null
  %26 = zext nneg i32 %23 to i64
  %27 = shl nuw nsw i64 %26, 3
  br i1 %.not9.i10.i, label %30, label %28

28:                                               ; preds = %22
  %29 = tail call ptr @realloc(ptr noundef nonnull %25, i64 noundef %27) #28
  br label %32

30:                                               ; preds = %22
  %31 = tail call noalias ptr @malloc(i64 noundef %27) #29
  br label %32

32:                                               ; preds = %30, %28
  %33 = phi ptr [ %29, %28 ], [ %31, %30 ]
  store ptr %33, ptr %24, align 8, !tbaa !129
  store i32 %23, ptr %3, align 8, !tbaa !197
  br label %Vec_PtrPush.exit

Vec_PtrPush.exit:                                 ; preds = %.Vec_PtrGrow.exit11_crit_edge.i, %Vec_PtrGrow.exit.i, %32
  %34 = phi ptr [ %.pre.i, %.Vec_PtrGrow.exit11_crit_edge.i ], [ %33, %32 ], [ %21, %Vec_PtrGrow.exit.i ]
  %35 = load i32, ptr %8, align 4, !tbaa !126
  %36 = add nsw i32 %35, 1
  store i32 %36, ptr %8, align 4, !tbaa !126
  %37 = sext i32 %35 to i64
  %38 = getelementptr inbounds ptr, ptr %34, i64 %37
  store ptr %6, ptr %38, align 8, !tbaa !130
  store i32 -1, ptr %6, align 4, !tbaa !48
  %.val = load i32, ptr %2, align 8
  %39 = and i32 %.val, 15
  %.not52 = icmp eq i32 %39, 2
  br i1 %.not52, label %.loopexit, label %.preheader

.preheader:                                       ; preds = %Vec_PtrPush.exit, %65
  %.04058 = phi ptr [ %67, %65 ], [ %2, %Vec_PtrPush.exit ]
  %40 = getelementptr inbounds nuw i8, ptr %.04058, i64 24
  %41 = load ptr, ptr %40, align 8, !tbaa !110
  %42 = tail call i32 @Gia_ManNodeIfToGia_rec(ptr noundef %0, ptr noundef %1, ptr noundef %41, ptr noundef nonnull %3, i32 noundef %4)
  %43 = icmp eq i32 %42, -1
  br i1 %43, label %65, label %44

44:                                               ; preds = %.preheader
  %45 = getelementptr inbounds nuw i8, ptr %.04058, i64 32
  %46 = load ptr, ptr %45, align 8, !tbaa !115
  %47 = tail call i32 @Gia_ManNodeIfToGia_rec(ptr noundef %0, ptr noundef %1, ptr noundef %46, ptr noundef nonnull %3, i32 noundef %4)
  %48 = icmp eq i32 %47, -1
  br i1 %48, label %65, label %49

49:                                               ; preds = %44
  %.not46 = icmp eq i32 %4, 0
  %50 = load i32, ptr %.04058, align 8
  %51 = lshr i32 %50, 4
  %.lobit54 = and i32 %51, 1
  %52 = xor i32 %.lobit54, %42
  %53 = lshr i32 %50, 5
  %.lobit55 = and i32 %53, 1
  %54 = xor i32 %.lobit55, %47
  br i1 %.not46, label %57, label %55

55:                                               ; preds = %49
  %56 = tail call i32 @Gia_ManHashAnd(ptr noundef %0, i32 noundef %52, i32 noundef %54) #27
  br label %59

57:                                               ; preds = %49
  %58 = tail call fastcc i32 @Gia_ManAppendAnd(ptr noundef %0, i32 noundef %52, i32 noundef %54)
  br label %59

59:                                               ; preds = %57, %55
  %.041 = phi i32 [ %56, %55 ], [ %58, %57 ]
  %60 = load i32, ptr %.04058, align 8
  %61 = load i32, ptr %2, align 8
  %62 = xor i32 %61, %60
  %63 = lshr i32 %62, 6
  %64 = and i32 %63, 1
  %spec.select = xor i32 %64, %.041
  store i32 %spec.select, ptr %6, align 4, !tbaa !48
  br label %.loopexit

65:                                               ; preds = %44, %.preheader
  %66 = getelementptr inbounds nuw i8, ptr %.04058, i64 40
  %67 = load ptr, ptr %66, align 8, !tbaa !116
  %.not45 = icmp eq ptr %67, null
  br i1 %.not45, label %.loopexit.loopexit, label %.preheader, !llvm.loop !198

.loopexit.loopexit:                               ; preds = %65
  %.val51.pre = load i32, ptr %6, align 4, !tbaa !48
  br label %.loopexit

.loopexit:                                        ; preds = %59, %.loopexit.loopexit, %Vec_PtrPush.exit, %5
  %.0 = phi i32 [ %.val48, %5 ], [ -1, %Vec_PtrPush.exit ], [ %.val51.pre, %.loopexit.loopexit ], [ %spec.select, %59 ]
  ret i32 %.0
}